target datalayout = "e-m:e-p270:32:32-p271:32:32-p272:64:64-i64:64-i128:128-f80:128-n8:16:32:64-S128"
target triple = "x86_64-pc-linux-gnu"

%class.LogTagSet = type { ptr, i64, [5 x i32], [4 x i8], %class.LogOutputList, %class.LogDecorators, ptr }
%class.LogOutputList = type <{ [6 x ptr], i32, [4 x i8] }>
%class.LogDecorators = type { i32 }
%class.Metadata = type { ptr }
%class.VM_RedefineClasses = type { %class.VM_Operation, ptr, i32, ptr, i32, i32, ptr, i32, i32, ptr, ptr, i32, i8, [3 x i8], %class.elapsedTimer, %class.elapsedTimer, %class.elapsedTimer, %class.elapsedTimer, i64 }
%class.VM_Operation = type { ptr, ptr }
%class.elapsedTimer = type <{ i64, i64, i8, [7 x i8] }>
%class.GrowableArrayBase = type { i32, i32 }
%class.ConstantPool = type <{ %class.Metadata, ptr, ptr, ptr, ptr, ptr, i16, i16, i16, i16, i16, [2 x i8], i32, %union.anon, [4 x i8] }>
%union.anon = type { i32 }
%class.ThreadShadow = type <{ ptr, ptr, ptr, i32, [4 x i8] }>
%class.GrowableArrayView.7 = type { %class.GrowableArrayBase, ptr }
%class.constantPoolHandle = type { ptr, ptr }

@.str.28 = private unnamed_addr constant [38 x i8] c"operands_index_map[%d]: old=%d new=%d\00", align 1
@_ZN16LogTagSetMappingILN6LogTag4typeE125ELS1_16ELS1_23ELS1_0ELS1_0ELS1_0EE7_tagsetE = linkonce_odr hidden global %class.LogTagSet zeroinitializer, comdat, align 8

; Function Attrs: mustprogress nounwind uwtable
define linkonce_odr hidden noundef zeroext i1 @_ZNK13LogOutputList8is_levelEN8LogLevel4typeE(ptr noundef nonnull align 8 dereferenceable(52) %0, i32 noundef %1) #1 comdat align 2 {
  %3 = alloca ptr, align 8
  %4 = alloca i32, align 4
  store ptr %0, ptr %3, align 8
  store i32 %1, ptr %4, align 4
  %5 = load ptr, ptr %3, align 8
  %6 = getelementptr inbounds %class.LogOutputList, ptr %5, i32 0, i32 0
  %7 = load i32, ptr %4, align 4
  %8 = zext i32 %7 to i64
  %9 = getelementptr inbounds [6 x ptr], ptr %6, i64 0, i64 %8
  %10 = load volatile ptr, ptr %9, align 8
  %11 = icmp ne ptr %10, null
  ret i1 %11
}

; Function Attrs: mustprogress nounwind uwtable
define linkonce_odr hidden noundef zeroext i1 @_ZNK9LogTagSet8is_levelEN8LogLevel4typeE(ptr noundef nonnull align 8 dereferenceable(112) %0, i32 noundef %1) #1 comdat align 2 {
  %3 = alloca ptr, align 8
  %4 = alloca i32, align 4
  store ptr %0, ptr %3, align 8
  store i32 %1, ptr %4, align 4
  %5 = load ptr, ptr %3, align 8
  %6 = getelementptr inbounds %class.LogTagSet, ptr %5, i32 0, i32 4
  %7 = load i32, ptr %4, align 4
  %8 = call noundef zeroext i1 @_ZNK13LogOutputList8is_levelEN8LogLevel4typeE(ptr noundef nonnull align 8 dereferenceable(52) %6, i32 noundef %7)
  ret i1 %8
}

; Function Attrs: mustprogress nounwind uwtable
define linkonce_odr hidden noundef nonnull align 8 dereferenceable(112) ptr @_ZN16LogTagSetMappingILN6LogTag4typeE125ELS1_16ELS1_23ELS1_0ELS1_0ELS1_0EE6tagsetEv() #1 comdat align 2 {
  ret ptr @_ZN16LogTagSetMappingILN6LogTag4typeE125ELS1_16ELS1_23ELS1_0ELS1_0ELS1_0EE7_tagsetE
}

; Function Attrs: mustprogress nounwind uwtable
define linkonce_odr hidden noundef ptr @_ZNK18constantPoolHandle12non_null_objEv(ptr noundef nonnull align 8 dereferenceable(16) %0) #1 comdat align 2 {
  %2 = alloca ptr, align 8
  store ptr %0, ptr %2, align 8
  %3 = load ptr, ptr %2, align 8
  %4 = getelementptr inbounds %class.constantPoolHandle, ptr %3, i32 0, i32 0
  %5 = load ptr, ptr %4, align 8
  ret ptr %5
}

; Function Attrs: mustprogress nounwind uwtable
define linkonce_odr hidden noundef nonnull align 4 dereferenceable(4) ptr @_ZN17GrowableArrayViewIiE2atEi(ptr noundef nonnull align 8 dereferenceable(16) %0, i32 noundef %1) #1 comdat align 2 {
  %3 = alloca ptr, align 8
  %4 = alloca i32, align 4
  store ptr %0, ptr %3, align 8
  store i32 %1, ptr %4, align 4
  %5 = load ptr, ptr %3, align 8
  %6 = getelementptr inbounds %class.GrowableArrayView.7, ptr %5, i32 0, i32 1
  %7 = load ptr, ptr %6, align 8
  %8 = load i32, ptr %4, align 4
  %9 = sext i32 %8 to i64
  %10 = getelementptr inbounds i32, ptr %7, i64 %9
  ret ptr %10
}

; Function Attrs: mustprogress nounwind uwtable
define linkonce_odr hidden noundef i32 @_ZNK17GrowableArrayBase6lengthEv(ptr noundef nonnull align 4 dereferenceable(8) %0) #1 comdat align 2 {
  %2 = alloca ptr, align 8
  store ptr %0, ptr %2, align 8
  %3 = load ptr, ptr %2, align 8
  %4 = getelementptr inbounds %class.GrowableArrayBase, ptr %3, i32 0, i32 0
  %5 = load i32, ptr %4, align 4
  ret i32 %5
}

; Function Attrs: mustprogress nounwind uwtable
define linkonce_odr hidden noundef zeroext i1 @_ZN7LogImplILN6LogTag4typeE125ELS1_16ELS1_23ELS1_0ELS1_0ELS1_0EE8is_levelEN8LogLevel4typeE(i32 noundef %0) #1 comdat align 2 {
  %2 = alloca i32, align 4
  store i32 %0, ptr %2, align 4
  %3 = call noundef nonnull align 8 dereferenceable(112) ptr @_ZN16LogTagSetMappingILN6LogTag4typeE125ELS1_16ELS1_23ELS1_0ELS1_0ELS1_0EE6tagsetEv()
  %4 = load i32, ptr %2, align 4
  %5 = call noundef zeroext i1 @_ZNK9LogTagSet8is_levelEN8LogLevel4typeE(ptr noundef nonnull align 8 dereferenceable(112) %3, i32 noundef %4)
  ret i1 %5
}

; Function Attrs: mustprogress nounwind uwtable
define linkonce_odr hidden noundef zeroext i1 @_ZNK12ThreadShadow21has_pending_exceptionEv(ptr noundef nonnull align 8 dereferenceable(28) %0) #1 comdat align 2 {
  %2 = alloca ptr, align 8
  store ptr %0, ptr %2, align 8
  %3 = load ptr, ptr %2, align 8
  %4 = getelementptr inbounds %class.ThreadShadow, ptr %3, i32 0, i32 1
  %5 = load ptr, ptr %4, align 8
  %6 = icmp ne ptr %5, null
  ret i1 %6
}

; Function Attrs: mustprogress nounwind uwtable
define linkonce_odr hidden noundef ptr @_ZNK12ConstantPool8operandsEv(ptr noundef nonnull align 8 dereferenceable(68) %0) #1 comdat align 2 {
  %2 = alloca ptr, align 8
  store ptr %0, ptr %2, align 8
  %3 = load ptr, ptr %2, align 8
  %4 = getelementptr inbounds %class.ConstantPool, ptr %3, i32 0, i32 4
  %5 = load ptr, ptr %4, align 8
  ret ptr %5
}

; Function Attrs: mustprogress nounwind uwtable
define linkonce_odr hidden noundef ptr @_ZNK18constantPoolHandleptEv(ptr noundef nonnull align 8 dereferenceable(16) %0) #1 comdat align 2 {
  %2 = alloca ptr, align 8
  store ptr %0, ptr %2, align 8
  %3 = load ptr, ptr %2, align 8
  %4 = call noundef ptr @_ZNK18constantPoolHandle12non_null_objEv(ptr noundef nonnull align 8 dereferenceable(16) %3)
  ret ptr %4
}

; Function Attrs: mustprogress nounwind uwtable
define hidden void @_ZN18VM_RedefineClasses23finalize_operands_mergeERK18constantPoolHandleP10JavaThread(ptr noundef nonnull align 8 dereferenceable(192) %0, ptr noundef nonnull align 8 dereferenceable(16) %1, ptr noundef %2) #1 align 2 {
  %4 = alloca ptr, align 8
  %5 = alloca ptr, align 8
  %6 = alloca ptr, align 8
  %7 = alloca i32, align 4
  %8 = alloca i32, align 4
  %9 = alloca i32, align 4
  store ptr %0, ptr %4, align 8
  store ptr %1, ptr %5, align 8
  store ptr %2, ptr %6, align 8
  %10 = load ptr, ptr %4, align 8
  %11 = load ptr, ptr %5, align 8
  %12 = call noundef ptr @_ZNK18constantPoolHandleptEv(ptr noundef nonnull align 8 dereferenceable(16) %11)
  %13 = call noundef ptr @_ZNK12ConstantPool8operandsEv(ptr noundef nonnull align 8 dereferenceable(68) %12)
  %14 = icmp eq ptr %13, null
  br i1 %14, label %15, label %16

15:                                               ; preds = %3
  br label %61

16:                                               ; preds = %3
  %17 = load ptr, ptr %5, align 8
  %18 = call noundef ptr @_ZNK18constantPoolHandleptEv(ptr noundef nonnull align 8 dereferenceable(16) %17)
  %19 = getelementptr inbounds %class.VM_RedefineClasses, ptr %10, i32 0, i32 7
  %20 = load i32, ptr %19, align 8
  %21 = load ptr, ptr %6, align 8
  call void @_ZN12ConstantPool15shrink_operandsEiP10JavaThread(ptr noundef nonnull align 8 dereferenceable(68) %18, i32 noundef %20, ptr noundef %21)
  %22 = load ptr, ptr %6, align 8
  %23 = call noundef zeroext i1 @_ZNK12ThreadShadow21has_pending_exceptionEv(ptr noundef nonnull align 8 dereferenceable(28) %22)
  br i1 %23, label %24, label %25

24:                                               ; preds = %16
  br label %61

25:                                               ; preds = %16
  %26 = call noundef zeroext i1 @_ZN7LogImplILN6LogTag4typeE125ELS1_16ELS1_23ELS1_0ELS1_0ELS1_0EE8is_levelEN8LogLevel4typeE(i32 noundef 1)
  br i1 %26, label %27, label %57

27:                                               ; preds = %25
  store i32 0, ptr %7, align 4
  store i32 1, ptr %8, align 4
  br label %28

28:                                               ; preds = %53, %27
  %29 = load i32, ptr %8, align 4
  %30 = getelementptr inbounds %class.VM_RedefineClasses, ptr %10, i32 0, i32 9
  %31 = load ptr, ptr %30, align 8
  %32 = call noundef i32 @_ZNK17GrowableArrayBase6lengthEv(ptr noundef nonnull align 4 dereferenceable(8) %31)
  %33 = icmp slt i32 %29, %32
  br i1 %33, label %34, label %56

34:                                               ; preds = %28
  %35 = getelementptr inbounds %class.VM_RedefineClasses, ptr %10, i32 0, i32 9
  %36 = load ptr, ptr %35, align 8
  %37 = load i32, ptr %8, align 4
  %38 = call noundef nonnull align 4 dereferenceable(4) ptr @_ZN17GrowableArrayViewIiE2atEi(ptr noundef nonnull align 8 dereferenceable(16) %36, i32 noundef %37)
  %39 = load i32, ptr %38, align 4
  store i32 %39, ptr %9, align 4
  %40 = load i32, ptr %9, align 4
  %41 = icmp ne i32 %40, -1
  br i1 %41, label %42, label %52

42:                                               ; preds = %34
  %43 = call noundef zeroext i1 @_ZN7LogImplILN6LogTag4typeE125ELS1_16ELS1_23ELS1_0ELS1_0ELS1_0EE8is_levelEN8LogLevel4typeE(i32 noundef 1)
  br i1 %43, label %45, label %44

44:                                               ; preds = %42
  br label %49

45:                                               ; preds = %42
  %46 = load i32, ptr %7, align 4
  %47 = load i32, ptr %8, align 4
  %48 = load i32, ptr %9, align 4
  call void (ptr, ...) @_ZN7LogImplILN6LogTag4typeE125ELS1_16ELS1_23ELS1_0ELS1_0ELS1_0EE5writeILN8LogLevel4typeE1EEEvPKcz(ptr noundef @.str.28, i32 noundef %46, i32 noundef %47, i32 noundef %48)
  br label %49

49:                                               ; preds = %45, %44
  %50 = load i32, ptr %7, align 4
  %51 = add nsw i32 %50, 1
  store i32 %51, ptr %7, align 4
  br label %52

52:                                               ; preds = %49, %34
  br label %53

53:                                               ; preds = %52
  %54 = load i32, ptr %8, align 4
  %55 = add nsw i32 %54, 1
  store i32 %55, ptr %8, align 4
  br label %28, !llvm.loop !19

56:                                               ; preds = %28
  br label %57

57:                                               ; preds = %56, %25
  %58 = getelementptr inbounds %class.VM_RedefineClasses, ptr %10, i32 0, i32 9
  store ptr null, ptr %58, align 8
  %59 = getelementptr inbounds %class.VM_RedefineClasses, ptr %10, i32 0, i32 7
  store i32 0, ptr %59, align 8
  %60 = getelementptr inbounds %class.VM_RedefineClasses, ptr %10, i32 0, i32 8
  store i32 0, ptr %60, align 4
  br label %61

61:                                               ; preds = %57, %24, %15
  ret void
}