; Function Attrs: mustprogress nounwind uwtable
define hidden void @_ZN18VM_RedefineClasses23finalize_operands_mergeERK18constantPoolHandleP10JavaThread(ptr nocapture noundef nonnull align 8 dereferenceable(192) %0, ptr nocapture noundef nonnull readonly align 8 dereferenceable(16) %1, ptr noundef %2) local_unnamed_addr #0 align 2 {
  %4 = load ptr, ptr %1, align 8
  %5 = getelementptr inbounds i8, ptr %4, i64 32
  %6 = load ptr, ptr %5, align 8
  %7 = icmp eq ptr %6, null
  br i1 %7, label %36, label %8

8:                                                ; preds = %3
  %9 = getelementptr inbounds i8, ptr %0, i64 56
  %10 = load i32, ptr %9, align 8
  tail call void @_ZN12ConstantPool15shrink_operandsEiP10JavaThread(ptr noundef nonnull align 8 dereferenceable(68) %4, i32 noundef %10, ptr noundef %2) #19
  %11 = getelementptr inbounds i8, ptr %2, i64 8
  %12 = load ptr, ptr %11, align 8
  %.not14 = icmp eq ptr %12, null
  br i1 %.not14, label %13, label %36

13:                                               ; preds = %8
  %14 = load volatile ptr, ptr getelementptr inbounds (i8, ptr @_ZN16LogTagSetMappingILN6LogTag4typeE125ELS1_16ELS1_23ELS1_0ELS1_0ELS1_0EE7_tagsetE, i64 48), align 8
  %.not15 = icmp eq ptr %14, null
  br i1 %.not15, label %.loopexit, label %.preheader

.preheader:                                       ; preds = %13
  %15 = getelementptr inbounds i8, ptr %0, i64 64
  %16 = load ptr, ptr %15, align 8
  %17 = load i32, ptr %16, align 4
  %18 = icmp sgt i32 %17, 1
  br i1 %18, label %.lr.ph, label %.loopexit

.lr.ph:                                           ; preds = %.preheader, %31
  %.pre2125 = phi i32 [ %.pre2126, %31 ], [ %17, %.preheader ]
  %.pre22 = phi ptr [ %.pre23, %31 ], [ %16, %.preheader ]
  %19 = phi i32 [ %32, %31 ], [ %17, %.preheader ]
  %20 = phi ptr [ %33, %31 ], [ %16, %.preheader ]
  %indvars.iv = phi i64 [ %indvars.iv.next, %31 ], [ 1, %.preheader ]
  %.019 = phi i32 [ %.1, %31 ], [ 0, %.preheader ]
  %21 = getelementptr inbounds i8, ptr %20, i64 8
  %22 = load ptr, ptr %21, align 8
  %23 = getelementptr inbounds i32, ptr %22, i64 %indvars.iv
  %24 = load i32, ptr %23, align 4
  %.not = icmp eq i32 %24, -1
  br i1 %.not, label %31, label %25

25:                                               ; preds = %.lr.ph
  %26 = load volatile ptr, ptr getelementptr inbounds (i8, ptr @_ZN16LogTagSetMappingILN6LogTag4typeE125ELS1_16ELS1_23ELS1_0ELS1_0ELS1_0EE7_tagsetE, i64 48), align 8
  %.not16 = icmp eq ptr %26, null
  br i1 %.not16, label %29, label %27

27:                                               ; preds = %25
  %28 = trunc nuw nsw i64 %indvars.iv to i32
  tail call void (ptr, ...) @_ZN7LogImplILN6LogTag4typeE125ELS1_16ELS1_23ELS1_0ELS1_0ELS1_0EE5writeILN8LogLevel4typeE1EEEvPKcz(ptr noundef nonnull @.str.28, i32 noundef %.019, i32 noundef %28, i32 noundef %24)
  %.pre.pre = load ptr, ptr %15, align 8
  %.pre21.pre = load i32, ptr %.pre.pre, align 4
  br label %29

29:                                               ; preds = %25, %27
  %.pre21 = phi i32 [ %.pre2125, %25 ], [ %.pre21.pre, %27 ]
  %.pre = phi ptr [ %.pre22, %25 ], [ %.pre.pre, %27 ]
  %30 = add nsw i32 %.019, 1
  br label %31

31:                                               ; preds = %.lr.ph, %29
  %.pre2126 = phi i32 [ %.pre21, %29 ], [ %.pre2125, %.lr.ph ]
  %.pre23 = phi ptr [ %.pre, %29 ], [ %.pre22, %.lr.ph ]
  %32 = phi i32 [ %.pre21, %29 ], [ %19, %.lr.ph ]
  %33 = phi ptr [ %.pre, %29 ], [ %20, %.lr.ph ]
  %.1 = phi i32 [ %30, %29 ], [ %.019, %.lr.ph ]
  %indvars.iv.next = add nuw nsw i64 %indvars.iv, 1
  %34 = sext i32 %32 to i64
  %35 = icmp slt i64 %indvars.iv.next, %34
  br i1 %35, label %.lr.ph, label %.loopexit, !llvm.loop !27

.loopexit:                                        ; preds = %31, %.preheader, %13
  tail call void @llvm.memset.p0.i64(ptr noundef nonnull align 8 dereferenceable(16) %9, i8 0, i64 16, i1 false)
  br label %36

36:                                               ; preds = %8, %3, %.loopexit
  ret void
}